target datalayout = "e-m:e-p270:32:32-p271:32:32-p272:64:64-i64:64-i128:128-f80:128-n8:16:32:64-S128"
target triple = "x86_64-pc-linux-gnu"

%struct.Vec_Wrd_t_ = type { i32, i32, ptr }

@s_Truths6 = internal global [6 x i64] [i64 -6148914691236517206, i64 -3689348814741910324, i64 -1085102592571150096, i64 -71777214294589696, i64 -281470681808896, i64 -4294967296], align 16
@s_Truths6Neg = internal global [6 x i64] [i64 6148914691236517205, i64 3689348814741910323, i64 1085102592571150095, i64 71777214294589695, i64 281470681808895, i64 4294967295], align 16

; Function Attrs: inlinehint nounwind uwtable
define internal i64 @Abc_Tt6Cofactor1(i64 noundef %0, i32 noundef %1) #4 {
  %3 = alloca i64, align 8
  %4 = alloca i32, align 4
  store i64 %0, ptr %3, align 8, !tbaa !33
  store i32 %1, ptr %4, align 4, !tbaa !9
  %5 = load i64, ptr %3, align 8, !tbaa !33
  %6 = load i32, ptr %4, align 4, !tbaa !9
  %7 = sext i32 %6 to i64
  %8 = getelementptr inbounds [6 x i64], ptr @s_Truths6, i64 0, i64 %7
  %9 = load i64, ptr %8, align 8, !tbaa !33
  %10 = and i64 %5, %9
  %11 = load i64, ptr %3, align 8, !tbaa !33
  %12 = load i32, ptr %4, align 4, !tbaa !9
  %13 = sext i32 %12 to i64
  %14 = getelementptr inbounds [6 x i64], ptr @s_Truths6, i64 0, i64 %13
  %15 = load i64, ptr %14, align 8, !tbaa !33
  %16 = and i64 %11, %15
  %17 = load i32, ptr %4, align 4, !tbaa !9
  %18 = shl i32 1, %17
  %19 = zext i32 %18 to i64
  %20 = lshr i64 %16, %19
  %21 = or i64 %10, %20
  ret i64 %21
}

; Function Attrs: inlinehint nounwind uwtable
define internal i64 @Abc_Tt6Cofactor0(i64 noundef %0, i32 noundef %1) #4 {
  %3 = alloca i64, align 8
  %4 = alloca i32, align 4
  store i64 %0, ptr %3, align 8, !tbaa !33
  store i32 %1, ptr %4, align 4, !tbaa !9
  %5 = load i64, ptr %3, align 8, !tbaa !33
  %6 = load i32, ptr %4, align 4, !tbaa !9
  %7 = sext i32 %6 to i64
  %8 = getelementptr inbounds [6 x i64], ptr @s_Truths6Neg, i64 0, i64 %7
  %9 = load i64, ptr %8, align 8, !tbaa !33
  %10 = and i64 %5, %9
  %11 = load i64, ptr %3, align 8, !tbaa !33
  %12 = load i32, ptr %4, align 4, !tbaa !9
  %13 = sext i32 %12 to i64
  %14 = getelementptr inbounds [6 x i64], ptr @s_Truths6Neg, i64 0, i64 %13
  %15 = load i64, ptr %14, align 8, !tbaa !33
  %16 = and i64 %11, %15
  %17 = load i32, ptr %4, align 4, !tbaa !9
  %18 = shl i32 1, %17
  %19 = zext i32 %18 to i64
  %20 = shl i64 %16, %19
  %21 = or i64 %10, %20
  ret i64 %21
}

; Function Attrs: inlinehint nounwind uwtable
define internal i64 @Vec_WrdEntry(ptr noundef %0, i32 noundef %1) #4 {
  %3 = alloca ptr, align 8
  %4 = alloca i32, align 4
  store ptr %0, ptr %3, align 8, !tbaa !66
  store i32 %1, ptr %4, align 4, !tbaa !9
  %5 = load ptr, ptr %3, align 8, !tbaa !66
  %6 = getelementptr inbounds nuw %struct.Vec_Wrd_t_, ptr %5, i32 0, i32 2
  %7 = load ptr, ptr %6, align 8, !tbaa !74
  %8 = load i32, ptr %4, align 4, !tbaa !9
  %9 = sext i32 %8 to i64
  %10 = getelementptr inbounds i64, ptr %7, i64 %9
  %11 = load i64, ptr %10, align 8, !tbaa !33
  ret i64 %11
}

; Function Attrs: inlinehint nounwind uwtable
define internal i32 @Vec_WrdSize(ptr noundef %0) #4 {
  %2 = alloca ptr, align 8
  store ptr %0, ptr %2, align 8, !tbaa !66
  %3 = load ptr, ptr %2, align 8, !tbaa !66
  %4 = getelementptr inbounds nuw %struct.Vec_Wrd_t_, ptr %3, i32 0, i32 1
  %5 = load i32, ptr %4, align 4, !tbaa !71
  ret i32 %5
}

; Function Attrs: inlinehint nounwind uwtable
define internal i32 @Abc_Tt6HasVar(i64 noundef %0, i32 noundef %1) #4 {
  %3 = alloca i64, align 8
  %4 = alloca i32, align 4
  store i64 %0, ptr %3, align 8, !tbaa !33
  store i32 %1, ptr %4, align 4, !tbaa !9
  %5 = load i64, ptr %3, align 8, !tbaa !33
  %6 = load i32, ptr %4, align 4, !tbaa !9
  %7 = shl i32 1, %6
  %8 = zext i32 %7 to i64
  %9 = lshr i64 %5, %8
  %10 = load i32, ptr %4, align 4, !tbaa !9
  %11 = sext i32 %10 to i64
  %12 = getelementptr inbounds [6 x i64], ptr @s_Truths6Neg, i64 0, i64 %11
  %13 = load i64, ptr %12, align 8, !tbaa !33
  %14 = and i64 %9, %13
  %15 = load i64, ptr %3, align 8, !tbaa !33
  %16 = load i32, ptr %4, align 4, !tbaa !9
  %17 = sext i32 %16 to i64
  %18 = getelementptr inbounds [6 x i64], ptr @s_Truths6Neg, i64 0, i64 %17
  %19 = load i64, ptr %18, align 8, !tbaa !33
  %20 = and i64 %15, %19
  %21 = icmp ne i64 %14, %20
  %22 = zext i1 %21 to i32
  ret i32 %22
}

; Function Attrs: inlinehint nounwind uwtable
define internal i64 @Abc_Tt6Min_rec(i64 noundef %0, i64 noundef %1, i32 noundef %2, ptr noundef %3) #4 {
  %5 = alloca i64, align 8
  %6 = alloca i64, align 8
  %7 = alloca i64, align 8
  %8 = alloca i32, align 4
  %9 = alloca ptr, align 8
  %10 = alloca i64, align 8
  %11 = alloca i64, align 8
  %12 = alloca i64, align 8
  %13 = alloca i64, align 8
  %14 = alloca i64, align 8
  %15 = alloca i64, align 8
  %16 = alloca i64, align 8
  %17 = alloca i32, align 4
  %18 = alloca i32, align 4
  %19 = alloca i32, align 4
  store i64 %0, ptr %6, align 8, !tbaa !33
  store i64 %1, ptr %7, align 8, !tbaa !33
  store i32 %2, ptr %8, align 4, !tbaa !9
  store ptr %3, ptr %9, align 8, !tbaa !66
  call void @llvm.lifetime.start.p0(i64 8, ptr %10) #13
  call void @llvm.lifetime.start.p0(i64 8, ptr %11) #13
  call void @llvm.lifetime.start.p0(i64 8, ptr %12) #13
  call void @llvm.lifetime.start.p0(i64 8, ptr %13) #13
  call void @llvm.lifetime.start.p0(i64 8, ptr %14) #13
  call void @llvm.lifetime.start.p0(i64 8, ptr %15) #13
  call void @llvm.lifetime.start.p0(i64 8, ptr %16) #13
  call void @llvm.lifetime.start.p0(i64 4, ptr %17) #13
  call void @llvm.lifetime.start.p0(i64 4, ptr %18) #13
  %20 = load i64, ptr %6, align 8, !tbaa !33
  %21 = icmp ne i64 %20, 0
  br i1 %21, label %26, label %22

22:                                               ; preds = %4
  %23 = load i64, ptr %7, align 8, !tbaa !33
  %24 = icmp ne i64 %23, 0
  br i1 %24, label %26, label %25

25:                                               ; preds = %22
  store i64 1311768467139281697, ptr %5, align 8
  store i32 1, ptr %19, align 4
  br label %162

26:                                               ; preds = %22, %4
  %27 = load i64, ptr %6, align 8, !tbaa !33
  %28 = icmp ne i64 %27, 0
  br i1 %28, label %34, label %29

29:                                               ; preds = %26
  %30 = load i64, ptr %7, align 8, !tbaa !33
  %31 = xor i64 %30, -1
  %32 = icmp ne i64 %31, 0
  br i1 %32, label %34, label %33

33:                                               ; preds = %29
  store i64 0, ptr %5, align 8
  store i32 1, ptr %19, align 4
  br label %162

34:                                               ; preds = %29, %26
  %35 = load i64, ptr %6, align 8, !tbaa !33
  %36 = xor i64 %35, -1
  %37 = icmp ne i64 %36, 0
  br i1 %37, label %42, label %38

38:                                               ; preds = %34
  %39 = load i64, ptr %7, align 8, !tbaa !33
  %40 = icmp ne i64 %39, 0
  br i1 %40, label %42, label %41

41:                                               ; preds = %38
  store i64 -1, ptr %5, align 8
  store i32 1, ptr %19, align 4
  br label %162

42:                                               ; preds = %38, %34
  %43 = load i32, ptr %8, align 4, !tbaa !9
  %44 = sub nsw i32 %43, 1
  store i32 %44, ptr %18, align 4, !tbaa !9
  br label %45

45:                                               ; preds = %60, %42
  %46 = load i32, ptr %18, align 4, !tbaa !9
  %47 = icmp sge i32 %46, 0
  br i1 %47, label %48, label %63

48:                                               ; preds = %45
  %49 = load i64, ptr %6, align 8, !tbaa !33
  %50 = load i32, ptr %18, align 4, !tbaa !9
  %51 = call i32 @Abc_Tt6HasVar(i64 noundef %49, i32 noundef %50)
  %52 = icmp ne i32 %51, 0
  br i1 %52, label %58, label %53

53:                                               ; preds = %48
  %54 = load i64, ptr %7, align 8, !tbaa !33
  %55 = load i32, ptr %18, align 4, !tbaa !9
  %56 = call i32 @Abc_Tt6HasVar(i64 noundef %54, i32 noundef %55)
  %57 = icmp ne i32 %56, 0
  br i1 %57, label %58, label %59

58:                                               ; preds = %53, %48
  br label %63

59:                                               ; preds = %53
  br label %60

60:                                               ; preds = %59
  %61 = load i32, ptr %18, align 4, !tbaa !9
  %62 = add nsw i32 %61, -1
  store i32 %62, ptr %18, align 4, !tbaa !9
  br label %45, !llvm.loop !75

63:                                               ; preds = %58, %45
  %64 = load ptr, ptr %9, align 8, !tbaa !66
  %65 = icmp ne ptr %64, null
  br i1 %65, label %66, label %96

66:                                               ; preds = %63
  store i32 0, ptr %17, align 4, !tbaa !9
  br label %67

67:                                               ; preds = %92, %66
  %68 = load i32, ptr %17, align 4, !tbaa !9
  %69 = load ptr, ptr %9, align 8, !tbaa !66
  %70 = call i32 @Vec_WrdSize(ptr noundef %69)
  %71 = icmp slt i32 %68, %70
  br i1 %71, label %72, label %76

72:                                               ; preds = %67
  %73 = load ptr, ptr %9, align 8, !tbaa !66
  %74 = load i32, ptr %17, align 4, !tbaa !9
  %75 = call i64 @Vec_WrdEntry(ptr noundef %73, i32 noundef %74)
  store i64 %75, ptr %16, align 8, !tbaa !33
  br label %76

76:                                               ; preds = %72, %67
  %77 = phi i1 [ false, %67 ], [ true, %72 ]
  br i1 %77, label %78, label %95

78:                                               ; preds = %76
  %79 = load i64, ptr %6, align 8, !tbaa !33
  %80 = load i64, ptr %16, align 8, !tbaa !33
  %81 = xor i64 %80, -1
  %82 = and i64 %79, %81
  %83 = icmp ne i64 %82, 0
  br i1 %83, label %91, label %84

84:                                               ; preds = %78
  %85 = load i64, ptr %16, align 8, !tbaa !33
  %86 = load i64, ptr %7, align 8, !tbaa !33
  %87 = and i64 %85, %86
  %88 = icmp ne i64 %87, 0
  br i1 %88, label %91, label %89

89:                                               ; preds = %84
  %90 = load i64, ptr %16, align 8, !tbaa !33
  store i64 %90, ptr %5, align 8
  store i32 1, ptr %19, align 4
  br label %162

91:                                               ; preds = %84, %78
  br label %92

92:                                               ; preds = %91
  %93 = load i32, ptr %17, align 4, !tbaa !9
  %94 = add nsw i32 %93, 1
  store i32 %94, ptr %17, align 4, !tbaa !9
  br label %67, !llvm.loop !76

95:                                               ; preds = %76
  br label %96

96:                                               ; preds = %95, %63
  %97 = load i64, ptr %6, align 8, !tbaa !33
  %98 = load i32, ptr %18, align 4, !tbaa !9
  %99 = call i64 @Abc_Tt6Cofactor0(i64 noundef %97, i32 noundef %98)
  store i64 %99, ptr %10, align 8, !tbaa !33
  %100 = load i64, ptr %6, align 8, !tbaa !33
  %101 = load i32, ptr %18, align 4, !tbaa !9
  %102 = call i64 @Abc_Tt6Cofactor1(i64 noundef %100, i32 noundef %101)
  store i64 %102, ptr %11, align 8, !tbaa !33
  %103 = load i64, ptr %7, align 8, !tbaa !33
  %104 = load i32, ptr %18, align 4, !tbaa !9
  %105 = call i64 @Abc_Tt6Cofactor0(i64 noundef %103, i32 noundef %104)
  store i64 %105, ptr %12, align 8, !tbaa !33
  %106 = load i64, ptr %7, align 8, !tbaa !33
  %107 = load i32, ptr %18, align 4, !tbaa !9
  %108 = call i64 @Abc_Tt6Cofactor1(i64 noundef %106, i32 noundef %107)
  store i64 %108, ptr %13, align 8, !tbaa !33
  %109 = load i64, ptr %10, align 8, !tbaa !33
  %110 = load i64, ptr %12, align 8, !tbaa !33
  %111 = load i32, ptr %18, align 4, !tbaa !9
  %112 = load ptr, ptr %9, align 8, !tbaa !66
  %113 = call i64 @Abc_Tt6Min_rec(i64 noundef %109, i64 noundef %110, i32 noundef %111, ptr noundef %112)
  store i64 %113, ptr %14, align 8, !tbaa !33
  %114 = load i64, ptr %11, align 8, !tbaa !33
  %115 = load i64, ptr %13, align 8, !tbaa !33
  %116 = load i32, ptr %18, align 4, !tbaa !9
  %117 = load ptr, ptr %9, align 8, !tbaa !66
  %118 = call i64 @Abc_Tt6Min_rec(i64 noundef %114, i64 noundef %115, i32 noundef %116, ptr noundef %117)
  store i64 %118, ptr %15, align 8, !tbaa !33
  %119 = load i64, ptr %14, align 8, !tbaa !33
  %120 = icmp eq i64 %119, 1311768467139281697
  br i1 %120, label %121, label %125

121:                                              ; preds = %96
  %122 = load i64, ptr %15, align 8, !tbaa !33
  %123 = icmp eq i64 %122, 1311768467139281697
  br i1 %123, label %124, label %125

124:                                              ; preds = %121
  store i64 1311768467139281697, ptr %5, align 8
  store i32 1, ptr %19, align 4
  br label %162

125:                                              ; preds = %121, %96
  %126 = load i64, ptr %14, align 8, !tbaa !33
  %127 = icmp eq i64 %126, 1311768467139281697
  br i1 %127, label %128, label %130

128:                                              ; preds = %125
  %129 = load i64, ptr %15, align 8, !tbaa !33
  store i64 %129, ptr %5, align 8
  store i32 1, ptr %19, align 4
  br label %162

130:                                              ; preds = %125
  %131 = load i64, ptr %15, align 8, !tbaa !33
  %132 = icmp eq i64 %131, 1311768467139281697
  br i1 %132, label %133, label %135

133:                                              ; preds = %130
  %134 = load i64, ptr %14, align 8, !tbaa !33
  store i64 %134, ptr %5, align 8
  store i32 1, ptr %19, align 4
  br label %162

135:                                              ; preds = %130
  %136 = load i64, ptr %14, align 8, !tbaa !33
  %137 = load i64, ptr %15, align 8, !tbaa !33
  %138 = icmp eq i64 %136, %137
  br i1 %138, label %139, label %141

139:                                              ; preds = %135
  %140 = load i64, ptr %14, align 8, !tbaa !33
  store i64 %140, ptr %5, align 8
  store i32 1, ptr %19, align 4
  br label %162

141:                                              ; preds = %135
  %142 = load i64, ptr %14, align 8, !tbaa !33
  %143 = load i32, ptr %18, align 4, !tbaa !9
  %144 = sext i32 %143 to i64
  %145 = getelementptr inbounds [6 x i64], ptr @s_Truths6Neg, i64 0, i64 %144
  %146 = load i64, ptr %145, align 8, !tbaa !33
  %147 = and i64 %142, %146
  %148 = load i64, ptr %15, align 8, !tbaa !33
  %149 = load i32, ptr %18, align 4, !tbaa !9
  %150 = sext i32 %149 to i64
  %151 = getelementptr inbounds [6 x i64], ptr @s_Truths6, i64 0, i64 %150
  %152 = load i64, ptr %151, align 8, !tbaa !33
  %153 = and i64 %148, %152
  %154 = or i64 %147, %153
  store i64 %154, ptr %16, align 8, !tbaa !33
  %155 = load ptr, ptr %9, align 8, !tbaa !66
  %156 = icmp ne ptr %155, null
  br i1 %156, label %157, label %160

157:                                              ; preds = %141
  %158 = load ptr, ptr %9, align 8, !tbaa !66
  %159 = load i64, ptr %16, align 8, !tbaa !33
  call void @Vec_WrdPush(ptr noundef %158, i64 noundef %159)
  br label %160

160:                                              ; preds = %157, %141
  %161 = load i64, ptr %16, align 8, !tbaa !33
  store i64 %161, ptr %5, align 8
  store i32 1, ptr %19, align 4
  br label %162

162:                                              ; preds = %160, %139, %133, %128, %124, %89, %41, %33, %25
  call void @llvm.lifetime.end.p0(i64 4, ptr %18) #13
  call void @llvm.lifetime.end.p0(i64 4, ptr %17) #13
  call void @llvm.lifetime.end.p0(i64 8, ptr %16) #13
  call void @llvm.lifetime.end.p0(i64 8, ptr %15) #13
  call void @llvm.lifetime.end.p0(i64 8, ptr %14) #13
  call void @llvm.lifetime.end.p0(i64 8, ptr %13) #13
  call void @llvm.lifetime.end.p0(i64 8, ptr %12) #13
  call void @llvm.lifetime.end.p0(i64 8, ptr %11) #13
  call void @llvm.lifetime.end.p0(i64 8, ptr %10) #13
  %163 = load i64, ptr %5, align 8
  ret i64 %163
}