; Function Attrs: inlinehint nounwind uwtable
define internal fastcc i64 @Abc_Tt6Min_rec(i64 noundef %0, i64 noundef %1, i32 noundef range(i32 -2147483648, 7) %2, ptr noundef %3) unnamed_addr #12 {
  %5 = icmp ne i64 %1, 0
  %6 = or i64 %1, %0
  %or.cond.not = icmp eq i64 %6, 0
  br i1 %or.cond.not, label %.loopexit, label %7

7:                                                ; preds = %4
  %.not = icmp eq i64 %0, 0
  %.not67 = icmp eq i64 %1, -1
  %or.cond = and i1 %.not, %.not67
  br i1 %or.cond, label %.loopexit, label %8

8:                                                ; preds = %7
  %9 = icmp ne i64 %0, -1
  %or.cond3 = or i1 %9, %5
  br i1 %or.cond3, label %.preheader78.preheader, label %.loopexit

.preheader78.preheader:                           ; preds = %8
  %10 = zext i32 %2 to i64
  %smin = tail call i32 @llvm.smin.i32(i32 %2, i32 0)
  %11 = add i32 %smin, -1
  br label %.preheader78

.preheader78:                                     ; preds = %.preheader78.preheader, %23
  %indvars.iv = phi i64 [ %10, %.preheader78.preheader ], [ %indvars.iv.next, %23 ]
  %indvars.iv.next = add nsw i64 %indvars.iv, -1
  %indvars = trunc i64 %indvars.iv.next to i32
  %12 = trunc nuw i64 %indvars.iv to i32
  %13 = icmp sgt i32 %12, 0
  br i1 %13, label %14, label %27

14:                                               ; preds = %.preheader78
  %15 = shl nuw i32 1, %indvars
  %16 = zext nneg i32 %15 to i64
  %17 = lshr i64 %0, %16
  %18 = and i64 %indvars.iv.next, 4294967295
  %19 = getelementptr inbounds nuw [6 x i64], ptr @s_Truths6Neg, i64 0, i64 %18
  %20 = load i64, ptr %19, align 8, !tbaa !16
  %21 = xor i64 %17, %0
  %22 = and i64 %20, %21
  %.not76 = icmp eq i64 %22, 0
  br i1 %.not76, label %23, label %27

23:                                               ; preds = %14
  %24 = lshr i64 %1, %16
  %25 = xor i64 %24, %1
  %26 = and i64 %20, %25
  %.not77 = icmp eq i64 %26, 0
  br i1 %.not77, label %.preheader78, label %27, !llvm.loop !75

27:                                               ; preds = %14, %23, %.preheader78
  %.0.lcssa = phi i32 [ %indvars, %14 ], [ %indvars, %23 ], [ %11, %.preheader78 ]
  %.not70 = icmp eq ptr %3, null
  br i1 %.not70, label %.critedge, label %.preheader

.preheader:                                       ; preds = %27
  %28 = getelementptr i8, ptr %3, i64 4
  %.val = load i32, ptr %28, align 4, !tbaa !61
  %29 = icmp sgt i32 %.val, 0
  br i1 %29, label %.lr.ph, label %.critedge

.lr.ph:                                           ; preds = %.preheader
  %30 = getelementptr i8, ptr %3, i64 8
  %.val75 = load ptr, ptr %30, align 8, !tbaa !64
  %wide.trip.count = zext nneg i32 %.val to i64
  br label %32

31:                                               ; preds = %32
  %indvars.iv.next83 = add nuw nsw i64 %indvars.iv82, 1
  %exitcond.not = icmp eq i64 %indvars.iv.next83, %wide.trip.count
  br i1 %exitcond.not, label %.critedge, label %32, !llvm.loop !76

32:                                               ; preds = %.lr.ph, %31
  %indvars.iv82 = phi i64 [ 0, %.lr.ph ], [ %indvars.iv.next83, %31 ]
  %33 = getelementptr inbounds nuw i64, ptr %.val75, i64 %indvars.iv82
  %34 = load i64, ptr %33, align 8, !tbaa !16
  %35 = xor i64 %34, -1
  %36 = and i64 %0, %35
  %37 = and i64 %34, %1
  %38 = or i64 %36, %37
  %or.cond73 = icmp eq i64 %38, 0
  br i1 %or.cond73, label %.loopexit, label %31

.critedge:                                        ; preds = %31, %.preheader, %27
  %39 = sext i32 %.0.lcssa to i64
  %40 = getelementptr inbounds [6 x i64], ptr @s_Truths6Neg, i64 0, i64 %39
  %41 = load i64, ptr %40, align 8, !tbaa !16
  %42 = and i64 %41, %0
  %43 = shl nuw i32 1, %.0.lcssa
  %44 = zext nneg i32 %43 to i64
  %45 = shl i64 %42, %44
  %46 = or i64 %45, %42
  %47 = getelementptr inbounds [6 x i64], ptr @s_Truths6, i64 0, i64 %39
  %48 = load i64, ptr %47, align 8, !tbaa !16
  %49 = and i64 %48, %0
  %50 = lshr i64 %49, %44
  %51 = or i64 %50, %49
  %52 = and i64 %41, %1
  %53 = shl i64 %52, %44
  %54 = or i64 %53, %52
  %55 = and i64 %48, %1
  %56 = lshr i64 %55, %44
  %57 = or i64 %56, %55
  %58 = tail call fastcc i64 @Abc_Tt6Min_rec(i64 noundef %46, i64 noundef %54, i32 noundef %.0.lcssa, ptr noundef %3)
  %59 = tail call fastcc i64 @Abc_Tt6Min_rec(i64 noundef %51, i64 noundef %57, i32 noundef %.0.lcssa, ptr noundef %3)
  %60 = icmp eq i64 %58, 1311768467139281697
  %61 = icmp eq i64 %59, 1311768467139281697
  %brmerge74 = select i1 %60, i1 true, i1 %61
  %.mux.mux = select i1 %60, i64 %59, i64 %58
  br i1 %brmerge74, label %.loopexit, label %62

62:                                               ; preds = %.critedge
  %63 = icmp eq i64 %58, %59
  br i1 %63, label %.loopexit, label %64

64:                                               ; preds = %62
  %65 = and i64 %58, %41
  %66 = and i64 %59, %48
  %67 = or i64 %66, %65
  br i1 %.not70, label %.loopexit, label %68

68:                                               ; preds = %64
  tail call fastcc void @Vec_WrdPush(ptr noundef %3, i64 noundef %67)
  br label %.loopexit

.loopexit:                                        ; preds = %32, %.critedge, %64, %68, %62, %8, %7, %4
  %.063 = phi i64 [ 1311768467139281697, %4 ], [ 0, %7 ], [ -1, %8 ], [ %.mux.mux, %.critedge ], [ %58, %62 ], [ %67, %68 ], [ %67, %64 ], [ %34, %32 ]
  ret i64 %.063
}